target datalayout = "e-m:e-p270:32:32-p271:32:32-p272:64:64-i64:64-i128:128-f80:128-n8:16:32:64-S128"
target triple = "x86_64-pc-linux-gnu"

%struct.CVodeMemRec = type { double, ptr, ptr, i32, i32, i32, double, double, ptr, i32, ptr, ptr, i32, ptr, i32, i32, double, double, ptr, i32, i32, i32, ptr, ptr, ptr, i32, i32, ptr, ptr, ptr, i32, double, i32, i32, double, ptr, ptr, i32, ptr, ptr, i32, i32, i32, double, ptr, ptr, [13 x ptr], ptr, ptr, ptr, ptr, ptr, [13 x ptr], ptr, ptr, ptr, ptr, [13 x ptr], ptr, ptr, ptr, ptr, ptr, i32, [13 x ptr], ptr, ptr, ptr, ptr, ptr, i32, double, i32, i32, i32, i32, i32, double, double, double, double, double, double, double, double, [14 x double], [6 x double], [13 x double], double, double, double, double, double, double, double, double, double, double, double, i32, ptr, i32, i64, i32, i32, i32, i32, i32, double, double, double, i64, i64, i64, i64, i64, i64, i64, i64, i64, ptr, i64, i64, ptr, i64, i64, i64, i64, i64, i64, i32, i64, i64, i64, i64, i64, i64, double, double, double, ptr, ptr, ptr, ptr, ptr, i32, i32, i64, double, double, double, i32, double, i32, i32, i32, i32, i32, i32, i32, i32, i32, i32, i32, i32, i32, i32, i32, i32, ptr, ptr, ptr, i32, [6 x [4 x double]], i32, i64, ptr, i32, ptr, ptr, double, double, double, ptr, ptr, ptr, double, double, i32, i32, i64, ptr, i32, i32, ptr, i32 }

; Function Attrs: nounwind uwtable
define internal void @cvFreeVectors(ptr noundef %0) #0 {
  %2 = alloca ptr, align 8
  %3 = alloca i32, align 4
  %4 = alloca i32, align 4
  store ptr %0, ptr %2, align 8, !tbaa !7
  call void @llvm.lifetime.start.p0(i64 4, ptr %3) #8
  call void @llvm.lifetime.start.p0(i64 4, ptr %4) #8
  %5 = load ptr, ptr %2, align 8, !tbaa !7
  %6 = getelementptr inbounds nuw %struct.CVodeMemRec, ptr %5, i32 0, i32 153
  %7 = load i32, ptr %6, align 8, !tbaa !83
  store i32 %7, ptr %4, align 4, !tbaa !3
  %8 = load ptr, ptr %2, align 8, !tbaa !7
  %9 = getelementptr inbounds nuw %struct.CVodeMemRec, ptr %8, i32 0, i32 47
  %10 = load ptr, ptr %9, align 8, !tbaa !108
  call void @N_VDestroy(ptr noundef %10)
  %11 = load ptr, ptr %2, align 8, !tbaa !7
  %12 = getelementptr inbounds nuw %struct.CVodeMemRec, ptr %11, i32 0, i32 49
  %13 = load ptr, ptr %12, align 8, !tbaa !162
  call void @N_VDestroy(ptr noundef %13)
  %14 = load ptr, ptr %2, align 8, !tbaa !7
  %15 = getelementptr inbounds nuw %struct.CVodeMemRec, ptr %14, i32 0, i32 50
  %16 = load ptr, ptr %15, align 8, !tbaa !163
  call void @N_VDestroy(ptr noundef %16)
  %17 = load ptr, ptr %2, align 8, !tbaa !7
  %18 = getelementptr inbounds nuw %struct.CVodeMemRec, ptr %17, i32 0, i32 51
  %19 = load ptr, ptr %18, align 8, !tbaa !164
  call void @N_VDestroy(ptr noundef %19)
  store i32 0, ptr %3, align 4, !tbaa !3
  br label %20

20:                                               ; preds = %31, %1
  %21 = load i32, ptr %3, align 4, !tbaa !3
  %22 = load i32, ptr %4, align 4, !tbaa !3
  %23 = icmp sle i32 %21, %22
  br i1 %23, label %24, label %34

24:                                               ; preds = %20
  %25 = load ptr, ptr %2, align 8, !tbaa !7
  %26 = getelementptr inbounds nuw %struct.CVodeMemRec, ptr %25, i32 0, i32 46
  %27 = load i32, ptr %3, align 4, !tbaa !3
  %28 = sext i32 %27 to i64
  %29 = getelementptr inbounds [13 x ptr], ptr %26, i64 0, i64 %28
  %30 = load ptr, ptr %29, align 8, !tbaa !103
  call void @N_VDestroy(ptr noundef %30)
  br label %31

31:                                               ; preds = %24
  %32 = load i32, ptr %3, align 4, !tbaa !3
  %33 = add nsw i32 %32, 1
  store i32 %33, ptr %3, align 4, !tbaa !3
  br label %20, !llvm.loop !287

34:                                               ; preds = %20
  %35 = load i32, ptr %4, align 4, !tbaa !3
  %36 = add nsw i32 %35, 5
  %37 = sext i32 %36 to i64
  %38 = load ptr, ptr %2, align 8, !tbaa !7
  %39 = getelementptr inbounds nuw %struct.CVodeMemRec, ptr %38, i32 0, i32 131
  %40 = load i64, ptr %39, align 8, !tbaa !116
  %41 = mul nsw i64 %37, %40
  %42 = load ptr, ptr %2, align 8, !tbaa !7
  %43 = getelementptr inbounds nuw %struct.CVodeMemRec, ptr %42, i32 0, i32 135
  %44 = load i64, ptr %43, align 8, !tbaa !86
  %45 = sub nsw i64 %44, %41
  store i64 %45, ptr %43, align 8, !tbaa !86
  %46 = load i32, ptr %4, align 4, !tbaa !3
  %47 = add nsw i32 %46, 5
  %48 = sext i32 %47 to i64
  %49 = load ptr, ptr %2, align 8, !tbaa !7
  %50 = getelementptr inbounds nuw %struct.CVodeMemRec, ptr %49, i32 0, i32 132
  %51 = load i64, ptr %50, align 8, !tbaa !117
  %52 = mul nsw i64 %48, %51
  %53 = load ptr, ptr %2, align 8, !tbaa !7
  %54 = getelementptr inbounds nuw %struct.CVodeMemRec, ptr %53, i32 0, i32 136
  %55 = load i64, ptr %54, align 8, !tbaa !87
  %56 = sub nsw i64 %55, %52
  store i64 %56, ptr %54, align 8, !tbaa !87
  %57 = load ptr, ptr %2, align 8, !tbaa !7
  %58 = getelementptr inbounds nuw %struct.CVodeMemRec, ptr %57, i32 0, i32 159
  %59 = load i32, ptr %58, align 8, !tbaa !88
  %60 = icmp ne i32 %59, 0
  br i1 %60, label %61, label %79

61:                                               ; preds = %34
  %62 = load ptr, ptr %2, align 8, !tbaa !7
  %63 = getelementptr inbounds nuw %struct.CVodeMemRec, ptr %62, i32 0, i32 8
  %64 = load ptr, ptr %63, align 8, !tbaa !170
  call void @N_VDestroy(ptr noundef %64)
  %65 = load ptr, ptr %2, align 8, !tbaa !7
  %66 = getelementptr inbounds nuw %struct.CVodeMemRec, ptr %65, i32 0, i32 131
  %67 = load i64, ptr %66, align 8, !tbaa !116
  %68 = load ptr, ptr %2, align 8, !tbaa !7
  %69 = getelementptr inbounds nuw %struct.CVodeMemRec, ptr %68, i32 0, i32 135
  %70 = load i64, ptr %69, align 8, !tbaa !86
  %71 = sub nsw i64 %70, %67
  store i64 %71, ptr %69, align 8, !tbaa !86
  %72 = load ptr, ptr %2, align 8, !tbaa !7
  %73 = getelementptr inbounds nuw %struct.CVodeMemRec, ptr %72, i32 0, i32 132
  %74 = load i64, ptr %73, align 8, !tbaa !117
  %75 = load ptr, ptr %2, align 8, !tbaa !7
  %76 = getelementptr inbounds nuw %struct.CVodeMemRec, ptr %75, i32 0, i32 136
  %77 = load i64, ptr %76, align 8, !tbaa !87
  %78 = sub nsw i64 %77, %74
  store i64 %78, ptr %76, align 8, !tbaa !87
  br label %79

79:                                               ; preds = %61, %34
  call void @llvm.lifetime.end.p0(i64 4, ptr %4) #8
  call void @llvm.lifetime.end.p0(i64 4, ptr %3) #8
  ret void
}

; Function Attrs: nounwind uwtable
define void @CVodeFree(ptr noundef %0) #0 {
  %2 = alloca ptr, align 8
  %3 = alloca ptr, align 8
  %4 = alloca i32, align 4
  store ptr %0, ptr %2, align 8, !tbaa !101
  call void @llvm.lifetime.start.p0(i64 8, ptr %3) #8
  %5 = load ptr, ptr %2, align 8, !tbaa !101
  %6 = load ptr, ptr %5, align 8, !tbaa !101
  %7 = icmp eq ptr %6, null
  br i1 %7, label %8, label %9

8:                                                ; preds = %1
  store i32 1, ptr %4, align 4
  br label %71

9:                                                ; preds = %1
  %10 = load ptr, ptr %2, align 8, !tbaa !101
  %11 = load ptr, ptr %10, align 8, !tbaa !101
  store ptr %11, ptr %3, align 8, !tbaa !7
  %12 = load ptr, ptr %3, align 8, !tbaa !7
  call void @cvFreeVectors(ptr noundef %12)
  %13 = load ptr, ptr %3, align 8, !tbaa !7
  call void @CVodeQuadFree(ptr noundef %13)
  %14 = load ptr, ptr %3, align 8, !tbaa !7
  call void @CVodeSensFree(ptr noundef %14)
  %15 = load ptr, ptr %3, align 8, !tbaa !7
  call void @CVodeQuadSensFree(ptr noundef %15)
  %16 = load ptr, ptr %3, align 8, !tbaa !7
  call void @CVodeAdjFree(ptr noundef %16)
  %17 = load ptr, ptr %3, align 8, !tbaa !7
  %18 = getelementptr inbounds nuw %struct.CVodeMemRec, ptr %17, i32 0, i32 4
  %19 = load i32, ptr %18, align 4, !tbaa !21
  %20 = icmp eq i32 %19, 2
  br i1 %20, label %21, label %31

21:                                               ; preds = %9
  %22 = load ptr, ptr %3, align 8, !tbaa !7
  %23 = getelementptr inbounds nuw %struct.CVodeMemRec, ptr %22, i32 0, i32 143
  %24 = load ptr, ptr %23, align 8, !tbaa !129
  %25 = icmp ne ptr %24, null
  br i1 %25, label %26, label %31

26:                                               ; preds = %21
  %27 = load ptr, ptr %3, align 8, !tbaa !7
  %28 = getelementptr inbounds nuw %struct.CVodeMemRec, ptr %27, i32 0, i32 143
  %29 = load ptr, ptr %28, align 8, !tbaa !129
  %30 = load ptr, ptr %3, align 8, !tbaa !7
  call void %29(ptr noundef %30)
  br label %31

31:                                               ; preds = %26, %21, %9
  %32 = load ptr, ptr %3, align 8, !tbaa !7
  %33 = getelementptr inbounds nuw %struct.CVodeMemRec, ptr %32, i32 0, i32 177
  %34 = load i32, ptr %33, align 8, !tbaa !51
  %35 = icmp sgt i32 %34, 0
  br i1 %35, label %36, label %67

36:                                               ; preds = %31
  %37 = load ptr, ptr %3, align 8, !tbaa !7
  %38 = getelementptr inbounds nuw %struct.CVodeMemRec, ptr %37, i32 0, i32 183
  %39 = load ptr, ptr %38, align 8, !tbaa !45
  call void @free(ptr noundef %39) #8
  %40 = load ptr, ptr %3, align 8, !tbaa !7
  %41 = getelementptr inbounds nuw %struct.CVodeMemRec, ptr %40, i32 0, i32 183
  store ptr null, ptr %41, align 8, !tbaa !45
  %42 = load ptr, ptr %3, align 8, !tbaa !7
  %43 = getelementptr inbounds nuw %struct.CVodeMemRec, ptr %42, i32 0, i32 184
  %44 = load ptr, ptr %43, align 8, !tbaa !46
  call void @free(ptr noundef %44) #8
  %45 = load ptr, ptr %3, align 8, !tbaa !7
  %46 = getelementptr inbounds nuw %struct.CVodeMemRec, ptr %45, i32 0, i32 184
  store ptr null, ptr %46, align 8, !tbaa !46
  %47 = load ptr, ptr %3, align 8, !tbaa !7
  %48 = getelementptr inbounds nuw %struct.CVodeMemRec, ptr %47, i32 0, i32 185
  %49 = load ptr, ptr %48, align 8, !tbaa !47
  call void @free(ptr noundef %49) #8
  %50 = load ptr, ptr %3, align 8, !tbaa !7
  %51 = getelementptr inbounds nuw %struct.CVodeMemRec, ptr %50, i32 0, i32 185
  store ptr null, ptr %51, align 8, !tbaa !47
  %52 = load ptr, ptr %3, align 8, !tbaa !7
  %53 = getelementptr inbounds nuw %struct.CVodeMemRec, ptr %52, i32 0, i32 178
  %54 = load ptr, ptr %53, align 8, !tbaa !48
  call void @free(ptr noundef %54) #8
  %55 = load ptr, ptr %3, align 8, !tbaa !7
  %56 = getelementptr inbounds nuw %struct.CVodeMemRec, ptr %55, i32 0, i32 178
  store ptr null, ptr %56, align 8, !tbaa !48
  %57 = load ptr, ptr %3, align 8, !tbaa !7
  %58 = getelementptr inbounds nuw %struct.CVodeMemRec, ptr %57, i32 0, i32 179
  %59 = load ptr, ptr %58, align 8, !tbaa !49
  call void @free(ptr noundef %59) #8
  %60 = load ptr, ptr %3, align 8, !tbaa !7
  %61 = getelementptr inbounds nuw %struct.CVodeMemRec, ptr %60, i32 0, i32 179
  store ptr null, ptr %61, align 8, !tbaa !49
  %62 = load ptr, ptr %3, align 8, !tbaa !7
  %63 = getelementptr inbounds nuw %struct.CVodeMemRec, ptr %62, i32 0, i32 191
  %64 = load ptr, ptr %63, align 8, !tbaa !52
  call void @free(ptr noundef %64) #8
  %65 = load ptr, ptr %3, align 8, !tbaa !7
  %66 = getelementptr inbounds nuw %struct.CVodeMemRec, ptr %65, i32 0, i32 191
  store ptr null, ptr %66, align 8, !tbaa !52
  br label %67

67:                                               ; preds = %36, %31
  %68 = load ptr, ptr %2, align 8, !tbaa !101
  %69 = load ptr, ptr %68, align 8, !tbaa !101
  call void @free(ptr noundef %69) #8
  %70 = load ptr, ptr %2, align 8, !tbaa !101
  store ptr null, ptr %70, align 8, !tbaa !101
  store i32 0, ptr %4, align 4
  br label %71

71:                                               ; preds = %67, %8
  call void @llvm.lifetime.end.p0(i64 8, ptr %3) #8
  %72 = load i32, ptr %4, align 4
  switch i32 %72, label %74 [
    i32 0, label %73
    i32 1, label %73
  ]

73:                                               ; preds = %71, %71
  ret void

74:                                               ; preds = %71
  unreachable
}