; Function Attrs: nounwind uwtable
define void @CVodeFree(ptr noundef captures(none) %0) local_unnamed_addr #0 {
  %2 = load ptr, ptr %0, align 8, !tbaa !376
  %3 = icmp eq ptr %2, null
  br i1 %3, label %71, label %4

4:                                                ; preds = %1
  %5 = getelementptr inbounds nuw i8, ptr %2, i64 1760
  %6 = load i32, ptr %5, align 8, !tbaa !39
  %7 = getelementptr inbounds nuw i8, ptr %2, i64 424
  %8 = load ptr, ptr %7, align 8, !tbaa !53
  tail call void @N_VDestroy(ptr noundef %8) #13
  %9 = getelementptr inbounds nuw i8, ptr %2, i64 440
  %10 = load ptr, ptr %9, align 8, !tbaa !79
  tail call void @N_VDestroy(ptr noundef %10) #13
  %11 = getelementptr inbounds nuw i8, ptr %2, i64 448
  %12 = load ptr, ptr %11, align 8, !tbaa !80
  tail call void @N_VDestroy(ptr noundef %12) #13
  %13 = getelementptr inbounds nuw i8, ptr %2, i64 456
  %14 = load ptr, ptr %13, align 8, !tbaa !81
  tail call void @N_VDestroy(ptr noundef %14) #13
  %.not23.i = icmp slt i32 %6, 0
  br i1 %.not23.i, label %._crit_edge.i, label %.lr.ph.i

.lr.ph.i:                                         ; preds = %4
  %15 = getelementptr inbounds nuw i8, ptr %2, i64 320
  %16 = add nuw i32 %6, 1
  %wide.trip.count.i = zext i32 %16 to i64
  br label %17

17:                                               ; preds = %17, %.lr.ph.i
  %indvars.iv.i = phi i64 [ 0, %.lr.ph.i ], [ %indvars.iv.next.i, %17 ]
  %18 = getelementptr inbounds nuw [13 x ptr], ptr %15, i64 0, i64 %indvars.iv.i
  %19 = load ptr, ptr %18, align 8, !tbaa !46
  tail call void @N_VDestroy(ptr noundef %19) #13
  %indvars.iv.next.i = add nuw nsw i64 %indvars.iv.i, 1
  %exitcond.not.i = icmp eq i64 %indvars.iv.next.i, %wide.trip.count.i
  br i1 %exitcond.not.i, label %._crit_edge.i, label %17, !llvm.loop !377

._crit_edge.i:                                    ; preds = %17, %4
  %20 = add nsw i32 %6, 5
  %21 = sext i32 %20 to i64
  %22 = getelementptr inbounds nuw i8, ptr %2, i64 1592
  %23 = load i64, ptr %22, align 8, !tbaa !77
  %24 = mul nsw i64 %23, %21
  %25 = getelementptr inbounds nuw i8, ptr %2, i64 1624
  %26 = load i64, ptr %25, align 8, !tbaa !42
  %27 = sub nsw i64 %26, %24
  store i64 %27, ptr %25, align 8, !tbaa !42
  %28 = getelementptr inbounds nuw i8, ptr %2, i64 1600
  %29 = load i64, ptr %28, align 8, !tbaa !78
  %30 = mul nsw i64 %29, %21
  %31 = getelementptr inbounds nuw i8, ptr %2, i64 1632
  %32 = load i64, ptr %31, align 8, !tbaa !43
  %33 = sub nsw i64 %32, %30
  store i64 %33, ptr %31, align 8, !tbaa !43
  %34 = getelementptr inbounds nuw i8, ptr %2, i64 1784
  %35 = load i32, ptr %34, align 8, !tbaa !113
  %.not22.i = icmp eq i32 %35, 0
  br i1 %.not22.i, label %cvFreeVectors.exit, label %36

36:                                               ; preds = %._crit_edge.i
  %37 = getelementptr inbounds nuw i8, ptr %2, i64 56
  %38 = load ptr, ptr %37, align 8, !tbaa !112
  tail call void @N_VDestroy(ptr noundef %38) #13
  %39 = load i64, ptr %22, align 8, !tbaa !77
  %40 = load i64, ptr %25, align 8, !tbaa !42
  %41 = sub nsw i64 %40, %39
  store i64 %41, ptr %25, align 8, !tbaa !42
  %42 = load i64, ptr %28, align 8, !tbaa !78
  %43 = load i64, ptr %31, align 8, !tbaa !43
  %44 = sub nsw i64 %43, %42
  store i64 %44, ptr %31, align 8, !tbaa !43
  br label %cvFreeVectors.exit

cvFreeVectors.exit:                               ; preds = %._crit_edge.i, %36
  tail call void @CVodeQuadFree(ptr noundef nonnull %2)
  tail call void @CVodeSensFree(ptr noundef nonnull %2)
  tail call void @CVodeQuadSensFree(ptr noundef nonnull %2)
  tail call void @CVodeAdjFree(ptr noundef nonnull %2) #13
  %45 = getelementptr inbounds nuw i8, ptr %2, i64 28
  %46 = load i32, ptr %45, align 4, !tbaa !18
  %47 = icmp eq i32 %46, 2
  br i1 %47, label %48, label %52

48:                                               ; preds = %cvFreeVectors.exit
  %49 = getelementptr inbounds nuw i8, ptr %2, i64 1688
  %50 = load ptr, ptr %49, align 8, !tbaa !378
  %.not = icmp eq ptr %50, null
  br i1 %.not, label %52, label %51

51:                                               ; preds = %48
  tail call void %50(ptr noundef nonnull %2) #13
  br label %52

52:                                               ; preds = %51, %48, %cvFreeVectors.exit
  %53 = getelementptr inbounds nuw i8, ptr %2, i64 2072
  %54 = load i32, ptr %53, align 8, !tbaa !199
  %55 = icmp sgt i32 %54, 0
  br i1 %55, label %56, label %69

56:                                               ; preds = %52
  %57 = getelementptr inbounds nuw i8, ptr %2, i64 2120
  %58 = load ptr, ptr %57, align 8, !tbaa !200
  tail call void @free(ptr noundef %58) #13
  store ptr null, ptr %57, align 8, !tbaa !200
  %59 = getelementptr inbounds nuw i8, ptr %2, i64 2128
  %60 = load ptr, ptr %59, align 8, !tbaa !201
  tail call void @free(ptr noundef %60) #13
  store ptr null, ptr %59, align 8, !tbaa !201
  %61 = getelementptr inbounds nuw i8, ptr %2, i64 2136
  %62 = load ptr, ptr %61, align 8, !tbaa !202
  tail call void @free(ptr noundef %62) #13
  store ptr null, ptr %61, align 8, !tbaa !202
  %63 = getelementptr inbounds nuw i8, ptr %2, i64 2080
  %64 = load ptr, ptr %63, align 8, !tbaa !203
  tail call void @free(ptr noundef %64) #13
  store ptr null, ptr %63, align 8, !tbaa !203
  %65 = getelementptr inbounds nuw i8, ptr %2, i64 2088
  %66 = load ptr, ptr %65, align 8, !tbaa !204
  tail call void @free(ptr noundef %66) #13
  store ptr null, ptr %65, align 8, !tbaa !204
  %67 = getelementptr inbounds nuw i8, ptr %2, i64 2176
  %68 = load ptr, ptr %67, align 8, !tbaa !205
  tail call void @free(ptr noundef %68) #13
  store ptr null, ptr %67, align 8, !tbaa !205
  br label %69

69:                                               ; preds = %56, %52
  %70 = load ptr, ptr %0, align 8, !tbaa !376
  tail call void @free(ptr noundef %70) #13
  store ptr null, ptr %0, align 8, !tbaa !376
  br label %71

71:                                               ; preds = %1, %69
  ret void
}